target datalayout = "e-m:e-p270:32:32-p271:32:32-p272:64:64-i64:64-i128:128-f80:128-n8:16:32:64-S128"
target triple = "x86_64-unknown-linux-gnu"

@.str.131 = private unnamed_addr constant [118 x i8] c"generated/home/dtcxzyw/WorkSpace/Projects/compilers/llvm-opt-benchmark/bench/grpc/grpc/src/core/lib/promise/context.h\00", align 1
@.str.132 = private unnamed_addr constant [13 x i8] c"p != nullptr\00", align 1
@_ZN9grpc_core14promise_detail7ContextINS_5ArenaEE8current_E = linkonce_odr thread_local global ptr null, comdat, align 8

; Function Attrs: mustprogress nounwind uwtable
define linkonce_odr noundef ptr @_ZN9grpc_core14promise_detail7ContextINS_5ArenaEE3getEv() #5 comdat align 2 {
entry:
  %0 = call align 8 ptr @llvm.threadlocal.address.p0(ptr align 8 @_ZN9grpc_core14promise_detail7ContextINS_5ArenaEE8current_E)
  %1 = load ptr, ptr %0, align 8
  ret ptr %1
}

; Function Attrs: mustprogress uwtable
define linkonce_odr noundef ptr @_ZN9grpc_core10GetContextINS_5ArenaEEEPT_v() #4 comdat {
entry:
  %p = alloca ptr, align 8
  %call = call noundef ptr @_ZN9grpc_core14promise_detail7ContextINS_5ArenaEE3getEv()
  store ptr %call, ptr %p, align 8
  br label %do.body

do.body:                                          ; preds = %entry
  %0 = load ptr, ptr %p, align 8
  %cmp = icmp ne ptr %0, null
  %lnot = xor i1 %cmp, true
  br i1 %lnot, label %if.then, label %if.end

if.then:                                          ; preds = %do.body
  call void @gpr_assertion_failed(ptr noundef @.str.131, i32 noundef 80, ptr noundef @.str.132) #17
  unreachable

if.end:                                           ; preds = %do.body
  br label %do.end

do.end:                                           ; preds = %if.end
  %1 = load ptr, ptr %p, align 8
  ret ptr %1
}

; Function Attrs: mustprogress uwtable
define internal void @"_ZN9grpc_core5Party15ParticipantImplIZNS_22ClientPromiseBasedCall12StartPromiseESt10unique_ptrI19grpc_metadata_batchNS_5Arena13PooledDeleterEERKNS_16PromiseBasedCall10CompletionERNS0_11BulkSpawnerEE3$_1ZNS2_12StartPromiseES7_SB_SD_E3$_2E7DestroyEv"(ptr noundef nonnull align 16 dereferenceable(112) %this) unnamed_addr #4 align 2 {
entry:
  %this.addr = alloca ptr, align 8
  store ptr %this, ptr %this.addr, align 8
  %this1 = load ptr, ptr %this.addr, align 8
  %call = call noundef ptr @_ZN9grpc_core10GetContextINS_5ArenaEEEPT_v()
  call void @"_ZN9grpc_core5Arena12DeletePooledINS_5Party15ParticipantImplIZNS_22ClientPromiseBasedCall12StartPromiseESt10unique_ptrI19grpc_metadata_batchNS0_13PooledDeleterEERKNS_16PromiseBasedCall10CompletionERNS2_11BulkSpawnerEE3$_1ZNS4_12StartPromiseES8_SC_SE_E3$_2EEEEvPT_"(ptr noundef nonnull align 8 dereferenceable(48) %call, ptr noundef %this1)
  ret void
}